target datalayout = "e-m:e-p270:32:32-p271:32:32-p272:64:64-i64:64-i128:128-f80:128-n8:16:32:64-S128"
target triple = "x86_64-pc-linux-gnu"

%struct.opj_cparameters = type { i32, i32, i32, i32, i32, i32, i32, i32, ptr, ptr, i32, i32, [32 x %struct.opj_poc], i32, i32, [100 x float], [100 x float], i32, i32, i32, i32, i32, i32, i32, i32, [33 x i32], [33 x i32], [4096 x i8], [4096 x i8], i32, [4096 x i8], i32, i32, i32, i32, i32, i32, i32, i32, [16 x i32], [16 x i32], [16 x i32], [16 x i32], [16 x i32], i32, i32, i32, i32, [16 x i32], [16 x i32], i32, i32, i32, i8, i8, i8, i32, ptr, i32, i16 }
%struct.opj_poc = type { i32, i32, i32, i32, i32, i32, i32, i32, i32, i32, [5 x i8], i32, i32, i32, i32, i32, i32, i32, i32, i32, i32, i32, i32, i32, i32, i32, i32, i32, i32, i32, i32, i32, i32, i32, i32, i32 }

; Function Attrs: nounwind uwtable
define hidden void @opj_set_default_encoder_parameters(ptr noundef %0) #0 {
  %2 = alloca ptr, align 8
  store ptr %0, ptr %2, align 8, !tbaa !46
  %3 = load ptr, ptr %2, align 8, !tbaa !46
  %4 = icmp ne ptr %3, null
  br i1 %4, label %5, label %48

5:                                                ; preds = %1
  %6 = load ptr, ptr %2, align 8, !tbaa !46
  call void @llvm.memset.p0.i64(ptr align 8 %6, i8 0, i64 18720, i1 false)
  %7 = load ptr, ptr %2, align 8, !tbaa !46
  %8 = getelementptr inbounds nuw %struct.opj_cparameters, ptr %7, i32 0, i32 50
  store i32 0, ptr %8, align 4, !tbaa !48
  %9 = load ptr, ptr %2, align 8, !tbaa !46
  %10 = getelementptr inbounds nuw %struct.opj_cparameters, ptr %9, i32 0, i32 59
  store i16 0, ptr %10, align 4, !tbaa !51
  %11 = load ptr, ptr %2, align 8, !tbaa !46
  %12 = getelementptr inbounds nuw %struct.opj_cparameters, ptr %11, i32 0, i32 51
  store i32 0, ptr %12, align 8, !tbaa !52
  %13 = load ptr, ptr %2, align 8, !tbaa !46
  %14 = getelementptr inbounds nuw %struct.opj_cparameters, ptr %13, i32 0, i32 17
  store i32 6, ptr %14, align 8, !tbaa !53
  %15 = load ptr, ptr %2, align 8, !tbaa !46
  %16 = getelementptr inbounds nuw %struct.opj_cparameters, ptr %15, i32 0, i32 52
  store i32 0, ptr %16, align 4, !tbaa !54
  %17 = load ptr, ptr %2, align 8, !tbaa !46
  %18 = getelementptr inbounds nuw %struct.opj_cparameters, ptr %17, i32 0, i32 18
  store i32 64, ptr %18, align 4, !tbaa !55
  %19 = load ptr, ptr %2, align 8, !tbaa !46
  %20 = getelementptr inbounds nuw %struct.opj_cparameters, ptr %19, i32 0, i32 19
  store i32 64, ptr %20, align 8, !tbaa !56
  %21 = load ptr, ptr %2, align 8, !tbaa !46
  %22 = getelementptr inbounds nuw %struct.opj_cparameters, ptr %21, i32 0, i32 11
  store i32 0, ptr %22, align 4, !tbaa !57
  %23 = load ptr, ptr %2, align 8, !tbaa !46
  %24 = getelementptr inbounds nuw %struct.opj_cparameters, ptr %23, i32 0, i32 22
  store i32 -1, ptr %24, align 4, !tbaa !58
  %25 = load ptr, ptr %2, align 8, !tbaa !46
  %26 = getelementptr inbounds nuw %struct.opj_cparameters, ptr %25, i32 0, i32 33
  store i32 1, ptr %26, align 4, !tbaa !59
  %27 = load ptr, ptr %2, align 8, !tbaa !46
  %28 = getelementptr inbounds nuw %struct.opj_cparameters, ptr %27, i32 0, i32 34
  store i32 1, ptr %28, align 8, !tbaa !60
  %29 = load ptr, ptr %2, align 8, !tbaa !46
  %30 = getelementptr inbounds nuw %struct.opj_cparameters, ptr %29, i32 0, i32 53
  store i8 0, ptr %30, align 8, !tbaa !61
  %31 = load ptr, ptr %2, align 8, !tbaa !46
  %32 = getelementptr inbounds nuw %struct.opj_cparameters, ptr %31, i32 0, i32 35
  store i32 -1, ptr %32, align 4, !tbaa !62
  %33 = load ptr, ptr %2, align 8, !tbaa !46
  %34 = getelementptr inbounds nuw %struct.opj_cparameters, ptr %33, i32 0, i32 36
  store i32 -1, ptr %34, align 8, !tbaa !63
  %35 = load ptr, ptr %2, align 8, !tbaa !46
  %36 = getelementptr inbounds nuw %struct.opj_cparameters, ptr %35, i32 0, i32 15
  %37 = getelementptr inbounds [100 x float], ptr %36, i64 0, i64 0
  store float 0.000000e+00, ptr %37, align 8, !tbaa !64
  %38 = load ptr, ptr %2, align 8, !tbaa !46
  %39 = getelementptr inbounds nuw %struct.opj_cparameters, ptr %38, i32 0, i32 14
  store i32 0, ptr %39, align 4, !tbaa !66
  %40 = load ptr, ptr %2, align 8, !tbaa !46
  %41 = getelementptr inbounds nuw %struct.opj_cparameters, ptr %40, i32 0, i32 5
  store i32 0, ptr %41, align 4, !tbaa !67
  %42 = load ptr, ptr %2, align 8, !tbaa !46
  %43 = getelementptr inbounds nuw %struct.opj_cparameters, ptr %42, i32 0, i32 6
  store i32 0, ptr %43, align 8, !tbaa !68
  %44 = load ptr, ptr %2, align 8, !tbaa !46
  %45 = getelementptr inbounds nuw %struct.opj_cparameters, ptr %44, i32 0, i32 7
  store i32 0, ptr %45, align 4, !tbaa !69
  %46 = load ptr, ptr %2, align 8, !tbaa !46
  %47 = getelementptr inbounds nuw %struct.opj_cparameters, ptr %46, i32 0, i32 56
  store i32 0, ptr %47, align 4, !tbaa !70
  br label %48

48:                                               ; preds = %5, %1
  ret void
}