; Function Attrs: mustprogress nofree norecurse nosync nounwind willreturn memory(argmem: write) uwtable
define hidden void @opj_set_default_encoder_parameters(ptr noundef writeonly %0) local_unnamed_addr #0 {
  %.not = icmp eq ptr %0, null
  br i1 %.not, label %14, label %2

2:                                                ; preds = %1
  %3 = getelementptr inbounds nuw i8, ptr %0, i64 5600
  tail call void @llvm.memset.p0.i64(ptr noundef nonnull align 8 dereferenceable(18720) %0, i8 0, i64 18720, i1 false)
  store i32 6, ptr %3, align 8, !tbaa !26
  %4 = getelementptr inbounds nuw i8, ptr %0, i64 5604
  store i32 64, ptr %4, align 4, !tbaa !31
  %5 = getelementptr inbounds nuw i8, ptr %0, i64 5608
  store i32 64, ptr %5, align 8, !tbaa !32
  %6 = getelementptr inbounds nuw i8, ptr %0, i64 5620
  store i32 -1, ptr %6, align 4, !tbaa !33
  %7 = getelementptr inbounds nuw i8, ptr %0, i64 18196
  store i32 1, ptr %7, align 4, !tbaa !34
  %8 = getelementptr inbounds nuw i8, ptr %0, i64 18200
  store i32 1, ptr %8, align 8, !tbaa !35
  %9 = getelementptr inbounds nuw i8, ptr %0, i64 18204
  store i32 -1, ptr %9, align 4, !tbaa !36
  %10 = getelementptr inbounds nuw i8, ptr %0, i64 18208
  store i32 -1, ptr %10, align 8, !tbaa !37
  %11 = getelementptr inbounds nuw i8, ptr %0, i64 4796
  store i32 0, ptr %11, align 4, !tbaa !38
  %12 = getelementptr inbounds nuw i8, ptr %0, i64 24
  store i32 0, ptr %12, align 8, !tbaa !39
  %13 = getelementptr inbounds nuw i8, ptr %0, i64 18700
  store i32 0, ptr %13, align 4, !tbaa !40
  br label %14

14:                                               ; preds = %2, %1
  ret void
}